target datalayout = "e-m:e-p270:32:32-p271:32:32-p272:64:64-i64:64-i128:128-f80:128-n8:16:32:64-S128"
target triple = "x86_64-pc-linux-gnu"

%struct._packet_info = type { ptr, ptr, i32, i32, %struct.nstime_t, %struct.nstime_t, %struct.nstime_t, i8, ptr, ptr, ptr, ptr, %struct._address, %struct._address, %struct._address, %struct._address, %struct._address, %struct._address, i32, ptr, i8, [3 x i8], %struct.anon, i32, i32, i32, i32, ptr, i8, ptr, ptr, i16, i16, i32, i32, i16, i32, i32, ptr, ptr, ptr, i8, i8, i16, i16, i16, i32, i16, i16, ptr, ptr, ptr, ptr, ptr, i32, i32 }
%struct.nstime_t = type { i64, i32 }
%struct._address = type { i32, i32, ptr, ptr }
%struct.anon = type { i8, [3 x i8] }

@hf_docsis_mgt_upstream_chid = internal global i32 0, align 4
@ett_docsis_uccrsp = internal global i32 0, align 4
@proto_docsis_uccrsp = internal global i32 0, align 4
@.str.2165 = private unnamed_addr constant [56 x i8] c"Upstream Channel Change response: Channel ID = %u (U%u)\00", align 1

; Function Attrs: null_pointer_is_valid sspstrong uwtable
define internal i32 @dissect_uccrsp(ptr noundef %0, ptr noundef %1, ptr noundef %2, ptr noundef %3) #0 {
  %5 = alloca ptr, align 8
  %6 = alloca ptr, align 8
  %7 = alloca ptr, align 8
  %8 = alloca ptr, align 8
  %9 = alloca ptr, align 8
  %10 = alloca ptr, align 8
  %11 = alloca i32, align 4
  store ptr %0, ptr %5, align 8
  store ptr %1, ptr %6, align 8
  store ptr %2, ptr %7, align 8
  store ptr %3, ptr %8, align 8
  call void @llvm.lifetime.start.p0(i64 8, ptr %9) #6
  call void @llvm.lifetime.start.p0(i64 8, ptr %10) #6
  call void @llvm.lifetime.start.p0(i64 4, ptr %11) #6
  %12 = load ptr, ptr %7, align 8
  %13 = load i32, ptr @proto_docsis_uccrsp, align 4
  %14 = load ptr, ptr %5, align 8
  %15 = call ptr @proto_tree_add_item(ptr noundef %12, i32 noundef %13, ptr noundef %14, i32 noundef 0, i32 noundef -1, i32 noundef 0)
  store ptr %15, ptr %9, align 8
  %16 = load ptr, ptr %9, align 8
  %17 = load i32, ptr @ett_docsis_uccrsp, align 4
  %18 = call ptr @proto_item_add_subtree(ptr noundef %16, i32 noundef %17)
  store ptr %18, ptr %10, align 8
  %19 = load ptr, ptr %10, align 8
  %20 = load i32, ptr @hf_docsis_mgt_upstream_chid, align 4
  %21 = load ptr, ptr %5, align 8
  %22 = call ptr @proto_tree_add_item_ret_uint(ptr noundef %19, i32 noundef %20, ptr noundef %21, i32 noundef 0, i32 noundef 1, i32 noundef 0, ptr noundef %11)
  %23 = load ptr, ptr %6, align 8
  %24 = getelementptr inbounds nuw %struct._packet_info, ptr %23, i32 0, i32 1
  %25 = load ptr, ptr %24, align 8
  %26 = load i32, ptr %11, align 4
  %27 = load i32, ptr %11, align 4
  %28 = icmp ugt i32 %27, 0
  br i1 %28, label %29, label %32

29:                                               ; preds = %4
  %30 = load i32, ptr %11, align 4
  %31 = sub i32 %30, 1
  br label %34

32:                                               ; preds = %4
  %33 = load i32, ptr %11, align 4
  br label %34

34:                                               ; preds = %32, %29
  %35 = phi i32 [ %31, %29 ], [ %33, %32 ]
  call void (ptr, i32, ptr, ...) @col_add_fstr(ptr noundef %25, i32 noundef 25, ptr noundef @.str.2165, i32 noundef %26, i32 noundef %35)
  %36 = load ptr, ptr %5, align 8
  %37 = call i32 @tvb_captured_length(ptr noundef %36)
  call void @llvm.lifetime.end.p0(i64 4, ptr %11) #6
  call void @llvm.lifetime.end.p0(i64 8, ptr %10) #6
  call void @llvm.lifetime.end.p0(i64 8, ptr %9) #6
  ret i32 %37
}